target datalayout = "e-m:e-p270:32:32-p271:32:32-p272:64:64-i64:64-i128:128-f80:128-n8:16:32:64-S128"
target triple = "x86_64-pc-linux-gnu"

%struct.POLICYINFO_st = type { ptr, ptr }

@.str.5 = private unnamed_addr constant [12 x i8] c"%*sPolicy: \00", align 1
@.str.6 = private unnamed_addr constant [1 x i8] zeroinitializer, align 1
@.str.7 = private unnamed_addr constant [2 x i8] c"\0A\00", align 1

; Function Attrs: inlinehint nounwind uwtable
define internal ptr @ossl_check_const_POLICYINFO_sk_type(ptr noundef %0) #3 {
  %2 = alloca ptr, align 8
  store ptr %0, ptr %2, align 8, !tbaa !8
  %3 = load ptr, ptr %2, align 8, !tbaa !8
  ret ptr %3
}

; Function Attrs: nounwind uwtable
define internal i32 @i2r_certpol(ptr noundef %0, ptr noundef %1, ptr noundef %2, i32 noundef %3) #0 {
  %5 = alloca ptr, align 8
  %6 = alloca ptr, align 8
  %7 = alloca ptr, align 8
  %8 = alloca i32, align 4
  %9 = alloca i32, align 4
  %10 = alloca ptr, align 8
  store ptr %0, ptr %5, align 8, !tbaa !3
  store ptr %1, ptr %6, align 8, !tbaa !8
  store ptr %2, ptr %7, align 8, !tbaa !10
  store i32 %3, ptr %8, align 4, !tbaa !12
  call void @llvm.lifetime.start.p0(i64 4, ptr %9) #5
  call void @llvm.lifetime.start.p0(i64 8, ptr %10) #5
  store i32 0, ptr %9, align 4, !tbaa !12
  br label %11

11:                                               ; preds = %50, %4
  %12 = load i32, ptr %9, align 4, !tbaa !12
  %13 = load ptr, ptr %6, align 8, !tbaa !8
  %14 = call ptr @ossl_check_const_POLICYINFO_sk_type(ptr noundef %13)
  %15 = call i32 @OPENSSL_sk_num(ptr noundef %14)
  %16 = icmp slt i32 %12, %15
  br i1 %16, label %17, label %53

17:                                               ; preds = %11
  %18 = load i32, ptr %9, align 4, !tbaa !12
  %19 = icmp sgt i32 %18, 0
  br i1 %19, label %20, label %23

20:                                               ; preds = %17
  %21 = load ptr, ptr %7, align 8, !tbaa !10
  %22 = call i32 @BIO_puts(ptr noundef %21, ptr noundef @.str.7)
  br label %23

23:                                               ; preds = %20, %17
  %24 = load ptr, ptr %6, align 8, !tbaa !8
  %25 = call ptr @ossl_check_const_POLICYINFO_sk_type(ptr noundef %24)
  %26 = load i32, ptr %9, align 4, !tbaa !12
  %27 = call ptr @OPENSSL_sk_value(ptr noundef %25, i32 noundef %26)
  store ptr %27, ptr %10, align 8, !tbaa !14
  %28 = load ptr, ptr %7, align 8, !tbaa !10
  %29 = load i32, ptr %8, align 4, !tbaa !12
  %30 = call i32 (ptr, ptr, ...) @BIO_printf(ptr noundef %28, ptr noundef @.str.5, i32 noundef %29, ptr noundef @.str.6)
  %31 = load ptr, ptr %7, align 8, !tbaa !10
  %32 = load ptr, ptr %10, align 8, !tbaa !14
  %33 = getelementptr inbounds nuw %struct.POLICYINFO_st, ptr %32, i32 0, i32 0
  %34 = load ptr, ptr %33, align 8, !tbaa !16
  %35 = call i32 @i2a_ASN1_OBJECT(ptr noundef %31, ptr noundef %34)
  %36 = load ptr, ptr %10, align 8, !tbaa !14
  %37 = getelementptr inbounds nuw %struct.POLICYINFO_st, ptr %36, i32 0, i32 1
  %38 = load ptr, ptr %37, align 8, !tbaa !20
  %39 = icmp ne ptr %38, null
  br i1 %39, label %40, label %49

40:                                               ; preds = %23
  %41 = load ptr, ptr %7, align 8, !tbaa !10
  %42 = call i32 @BIO_puts(ptr noundef %41, ptr noundef @.str.7)
  %43 = load ptr, ptr %7, align 8, !tbaa !10
  %44 = load ptr, ptr %10, align 8, !tbaa !14
  %45 = getelementptr inbounds nuw %struct.POLICYINFO_st, ptr %44, i32 0, i32 1
  %46 = load ptr, ptr %45, align 8, !tbaa !20
  %47 = load i32, ptr %8, align 4, !tbaa !12
  %48 = add nsw i32 %47, 2
  call void @print_qualifiers(ptr noundef %43, ptr noundef %46, i32 noundef %48)
  br label %49

49:                                               ; preds = %40, %23
  br label %50

50:                                               ; preds = %49
  %51 = load i32, ptr %9, align 4, !tbaa !12
  %52 = add nsw i32 %51, 1
  store i32 %52, ptr %9, align 4, !tbaa !12
  br label %11, !llvm.loop !21

53:                                               ; preds = %11
  call void @llvm.lifetime.end.p0(i64 8, ptr %10) #5
  call void @llvm.lifetime.end.p0(i64 4, ptr %9) #5
  ret i32 1
}