; Function Attrs: nounwind uwtable
define internal noundef i32 @i2r_certpol(ptr readnone captures(none) %0, ptr noundef %1, ptr noundef %2, i32 noundef %3) #1 {
  %5 = tail call i32 @OPENSSL_sk_num(ptr noundef %1) #4
  %6 = icmp sgt i32 %5, 0
  br i1 %6, label %.lr.ph, label %._crit_edge

.lr.ph:                                           ; preds = %4
  %7 = add nsw i32 %3, 2
  br label %8

8:                                                ; preds = %.lr.ph, %21
  %.016 = phi i32 [ 0, %.lr.ph ], [ %22, %21 ]
  %.not = icmp eq i32 %.016, 0
  br i1 %.not, label %11, label %9

9:                                                ; preds = %8
  %10 = tail call i32 @BIO_puts(ptr noundef %2, ptr noundef nonnull @.str.7) #4
  br label %11

11:                                               ; preds = %9, %8
  %12 = tail call ptr @OPENSSL_sk_value(ptr noundef %1, i32 noundef %.016) #4
  %13 = tail call i32 (ptr, ptr, ...) @BIO_printf(ptr noundef %2, ptr noundef nonnull @.str.5, i32 noundef %3, ptr noundef nonnull @.str.6) #4
  %14 = load ptr, ptr %12, align 8, !tbaa !3
  %15 = tail call i32 @i2a_ASN1_OBJECT(ptr noundef %2, ptr noundef %14) #4
  %16 = getelementptr inbounds nuw i8, ptr %12, i64 8
  %17 = load ptr, ptr %16, align 8, !tbaa !10
  %.not15 = icmp eq ptr %17, null
  br i1 %.not15, label %21, label %18

18:                                               ; preds = %11
  %19 = tail call i32 @BIO_puts(ptr noundef %2, ptr noundef nonnull @.str.7) #4
  %20 = load ptr, ptr %16, align 8, !tbaa !10
  tail call fastcc void @print_qualifiers(ptr noundef %2, ptr noundef %20, i32 noundef %7)
  br label %21

21:                                               ; preds = %11, %18
  %22 = add nuw nsw i32 %.016, 1
  %23 = tail call i32 @OPENSSL_sk_num(ptr noundef %1) #4
  %24 = icmp slt i32 %22, %23
  br i1 %24, label %8, label %._crit_edge, !llvm.loop !11

._crit_edge:                                      ; preds = %21, %4
  ret i32 1
}